target datalayout = "e-m:e-p270:32:32-p271:32:32-p272:64:64-i64:64-i128:128-f80:128-n8:16:32:64-S128"
target triple = "x86_64-pc-linux-gnu"

%"class.G1FreeRegionList::NodeInfo" = type <{ ptr, ptr, i32, [4 x i8] }>

; Function Attrs: mustprogress nounwind uwtable
define hidden void @_ZN16G1FreeRegionList8NodeInfo3addEPS0_(ptr noundef nonnull align 8 dereferenceable(20) %0, ptr noundef %1) #1 align 2 {
  %3 = alloca ptr, align 8
  %4 = alloca ptr, align 8
  %5 = alloca i32, align 4
  store ptr %0, ptr %3, align 8
  store ptr %1, ptr %4, align 8
  %6 = load ptr, ptr %3, align 8
  store i32 0, ptr %5, align 4
  br label %7

7:                                                ; preds = %27, %2
  %8 = load i32, ptr %5, align 4
  %9 = getelementptr inbounds %"class.G1FreeRegionList::NodeInfo", ptr %6, i32 0, i32 2
  %10 = load i32, ptr %9, align 8
  %11 = icmp ult i32 %8, %10
  br i1 %11, label %12, label %30

12:                                               ; preds = %7
  %13 = load ptr, ptr %4, align 8
  %14 = getelementptr inbounds %"class.G1FreeRegionList::NodeInfo", ptr %13, i32 0, i32 1
  %15 = load ptr, ptr %14, align 8
  %16 = load i32, ptr %5, align 4
  %17 = zext i32 %16 to i64
  %18 = getelementptr inbounds i32, ptr %15, i64 %17
  %19 = load i32, ptr %18, align 4
  %20 = getelementptr inbounds %"class.G1FreeRegionList::NodeInfo", ptr %6, i32 0, i32 1
  %21 = load ptr, ptr %20, align 8
  %22 = load i32, ptr %5, align 4
  %23 = zext i32 %22 to i64
  %24 = getelementptr inbounds i32, ptr %21, i64 %23
  %25 = load i32, ptr %24, align 4
  %26 = add i32 %25, %19
  store i32 %26, ptr %24, align 4
  br label %27

27:                                               ; preds = %12
  %28 = load i32, ptr %5, align 4
  %29 = add i32 %28, 1
  store i32 %29, ptr %5, align 4
  br label %7, !llvm.loop !8

30:                                               ; preds = %7
  ret void
}