; Function Attrs: mustprogress nofree norecurse nosync nounwind memory(readwrite, inaccessiblemem: none) uwtable
define hidden void @_ZN16G1FreeRegionList8NodeInfo3addEPS0_(ptr nocapture noundef nonnull readonly align 8 dereferenceable(20) %0, ptr nocapture noundef readonly %1) local_unnamed_addr #4 align 2 {
  %3 = getelementptr inbounds i8, ptr %0, i64 16
  %4 = load i32, ptr %3, align 8
  %.not = icmp eq i32 %4, 0
  br i1 %.not, label %._crit_edge, label %.lr.ph

.lr.ph:                                           ; preds = %2
  %5 = getelementptr inbounds i8, ptr %1, i64 8
  %6 = getelementptr inbounds i8, ptr %0, i64 8
  br label %7

7:                                                ; preds = %.lr.ph, %7
  %indvars.iv = phi i64 [ 0, %.lr.ph ], [ %indvars.iv.next, %7 ]
  %8 = load ptr, ptr %5, align 8
  %9 = getelementptr inbounds i32, ptr %8, i64 %indvars.iv
  %10 = load i32, ptr %9, align 4
  %11 = load ptr, ptr %6, align 8
  %12 = getelementptr inbounds i32, ptr %11, i64 %indvars.iv
  %13 = load i32, ptr %12, align 4
  %14 = add i32 %13, %10
  store i32 %14, ptr %12, align 4
  %indvars.iv.next = add nuw nsw i64 %indvars.iv, 1
  %15 = load i32, ptr %3, align 8
  %16 = zext i32 %15 to i64
  %17 = icmp ult i64 %indvars.iv.next, %16
  br i1 %17, label %7, label %._crit_edge, !llvm.loop !8

._crit_edge:                                      ; preds = %7, %2
  ret void
}